target datalayout = "e-m:e-p270:32:32-p271:32:32-p272:64:64-i64:64-i128:128-f80:128-n8:16:32:64-S128"
target triple = "x86_64-pc-linux-gnu"

%struct.t_psdata = type { ptr, %"class.std::vector", float, i32 }
%"class.std::vector" = type { %"struct.std::_Vector_base" }
%"struct.std::_Vector_base" = type { %"struct.std::_Vector_base<t_rgb, std::allocator<t_rgb>>::_Vector_impl" }
%"struct.std::_Vector_base<t_rgb, std::allocator<t_rgb>>::_Vector_impl" = type { %"struct.std::_Vector_base<t_rgb, std::allocator<t_rgb>>::_Vector_impl_data" }
%"struct.std::_Vector_base<t_rgb, std::allocator<t_rgb>>::_Vector_impl_data" = type { ptr, ptr, ptr }
%"class.std::__cxx11::basic_string" = type { %"struct.std::__cxx11::basic_string<char>::_Alloc_hider", i64, %union.anon }
%"struct.std::__cxx11::basic_string<char>::_Alloc_hider" = type { ptr }
%union.anon = type { i64, [8 x i8] }
%"class.std::filesystem::__cxx11::path" = type { %"class.std::__cxx11::basic_string", %"struct.std::filesystem::__cxx11::path::_List" }
%"struct.std::filesystem::__cxx11::path::_List" = type { %"class.std::unique_ptr" }
%"class.std::unique_ptr" = type { %"struct.std::__uniq_ptr_data" }
%"struct.std::__uniq_ptr_data" = type { %"class.std::__uniq_ptr_impl" }
%"class.std::__uniq_ptr_impl" = type { %"class.std::tuple" }
%"class.std::tuple" = type { %"struct.std::_Tuple_impl" }
%"struct.std::_Tuple_impl" = type { %"struct.std::_Head_base.4" }
%"struct.std::_Head_base.4" = type { ptr }

@.str.56 = private unnamed_addr constant [124 x i8] c"generated/home/dtcxzyw/WorkSpace/Projects/compilers/llvm-opt-benchmark/bench/gromacs/gromacs/src/gromacs/fileio/writeps.cpp\00", align 1
@.str.61 = private unnamed_addr constant [21 x i8] c"No origin on stack!\0A\00", align 1
@.str.62 = private unnamed_addr constant [29 x i8] c"neg exch neg exch translate\0A\00", align 1

; Function Attrs: mustprogress uwtable
define void @_Z14ps_unsetoriginP8t_psdata(ptr noundef %0) #0 personality ptr @__gxx_personality_v0 {
  %2 = alloca ptr, align 8
  %3 = alloca %"class.std::filesystem::__cxx11::path", align 8
  %4 = alloca ptr, align 8
  %5 = alloca i32, align 4
  store ptr %0, ptr %2, align 8, !tbaa !26
  %6 = load ptr, ptr %2, align 8, !tbaa !26
  %7 = getelementptr inbounds nuw %struct.t_psdata, ptr %6, i32 0, i32 3
  %8 = load i32, ptr %7, align 4, !tbaa !29
  %9 = icmp sle i32 %8, 0
  br i1 %9, label %10, label %16

10:                                               ; preds = %1
  call void @llvm.lifetime.start.p0(i64 40, ptr %3) #14
  call void @_ZNSt10filesystem7__cxx114pathC2IA124_cS1_EERKT_NS1_6formatE(ptr noundef nonnull align 8 dereferenceable(40) %3, ptr noundef nonnull align 1 dereferenceable(124) @.str.56, i8 noundef zeroext 2)
  invoke void (i32, ptr, i32, ptr, ...) @_Z9gmx_fataliRKNSt10filesystem7__cxx114pathEiPKcz(i32 noundef 0, ptr noundef nonnull align 8 dereferenceable(40) %3, i32 noundef 330, ptr noundef @.str.61) #16
          to label %11 unwind label %12

11:                                               ; preds = %10
  unreachable

12:                                               ; preds = %10
  %13 = landingpad { ptr, i32 }
          cleanup
  %14 = extractvalue { ptr, i32 } %13, 0
  store ptr %14, ptr %4, align 8
  %15 = extractvalue { ptr, i32 } %13, 1
  store i32 %15, ptr %5, align 4
  call void @_ZNSt10filesystem7__cxx114pathD2Ev(ptr noundef nonnull align 8 dereferenceable(40) %3) #14
  call void @llvm.lifetime.end.p0(i64 40, ptr %3) #14
  br label %25

16:                                               ; preds = %1
  %17 = load ptr, ptr %2, align 8, !tbaa !26
  %18 = getelementptr inbounds nuw %struct.t_psdata, ptr %17, i32 0, i32 0
  %19 = load ptr, ptr %18, align 8, !tbaa !17
  %20 = call i32 (ptr, ptr, ...) @fprintf(ptr noundef %19, ptr noundef @.str.62) #14
  %21 = load ptr, ptr %2, align 8, !tbaa !26
  %22 = getelementptr inbounds nuw %struct.t_psdata, ptr %21, i32 0, i32 3
  %23 = load i32, ptr %22, align 4, !tbaa !29
  %24 = add nsw i32 %23, -1
  store i32 %24, ptr %22, align 4, !tbaa !29
  ret void

25:                                               ; preds = %12
  %26 = load ptr, ptr %4, align 8
  %27 = load i32, ptr %5, align 4
  %28 = insertvalue { ptr, i32 } poison, ptr %26, 0
  %29 = insertvalue { ptr, i32 } %28, i32 %27, 1
  resume { ptr, i32 } %29
}