; Function Attrs: mustprogress uwtable
define void @_Z14ps_unsetoriginP8t_psdata(ptr noundef captures(none) %0) local_unnamed_addr #3 personality ptr @__gxx_personality_v0 {
  %2 = alloca %"class.std::filesystem::__cxx11::path", align 8
  %3 = getelementptr inbounds nuw i8, ptr %0, i64 36
  %4 = load i32, ptr %3, align 4, !tbaa !56
  %5 = icmp slt i32 %4, 1
  br i1 %5, label %6, label %10

6:                                                ; preds = %1
  call void @llvm.lifetime.start.p0(i64 40, ptr nonnull %2) #18
  call void @_ZNSt10filesystem7__cxx114pathC2IA124_cS1_EERKT_NS1_6formatE(ptr noundef nonnull align 8 dereferenceable(40) %2, ptr noundef nonnull align 1 dereferenceable(124) @.str.56, i8 noundef zeroext 2)
  invoke void (i32, ptr, i32, ptr, ...) @_Z9gmx_fataliRKNSt10filesystem7__cxx114pathEiPKcz(i32 noundef 0, ptr noundef nonnull align 8 dereferenceable(40) %2, i32 noundef 330, ptr noundef nonnull @.str.61) #19
          to label %7 unwind label %8

7:                                                ; preds = %6
  unreachable

8:                                                ; preds = %6
  %9 = landingpad { ptr, i32 }
          cleanup
  call void @_ZNSt10filesystem7__cxx114pathD2Ev(ptr noundef nonnull align 8 dereferenceable(40) %2) #18
  call void @llvm.lifetime.end.p0(i64 40, ptr nonnull %2) #18
  resume { ptr, i32 } %9

10:                                               ; preds = %1
  %11 = load ptr, ptr %0, align 8, !tbaa !9
  %12 = tail call i64 @fwrite(ptr nonnull @.str.62, i64 28, i64 1, ptr %11)
  %13 = load i32, ptr %3, align 4, !tbaa !56
  %14 = add nsw i32 %13, -1
  store i32 %14, ptr %3, align 4, !tbaa !56
  ret void
}